target datalayout = "e-m:e-p270:32:32-p271:32:32-p272:64:64-i64:64-i128:128-f80:128-n8:16:32:64-S128"
target triple = "x86_64-pc-linux-gnu"

%struct.Llb_Mtr_t_ = type { i32, i32, i32, i32, ptr, ptr, ptr, ptr, ptr, ptr, ptr }

; Function Attrs: nounwind uwtable
define float @Llb_ManComputeCommonAttr(ptr noundef %0, i32 noundef %1, i32 noundef %2) #0 {
  %4 = alloca ptr, align 8
  %5 = alloca i32, align 4
  %6 = alloca i32, align 4
  %7 = alloca i32, align 4
  %8 = alloca i32, align 4
  %9 = alloca i32, align 4
  store ptr %0, ptr %4, align 8, !tbaa !3
  store i32 %1, ptr %5, align 4, !tbaa !8
  store i32 %2, ptr %6, align 4, !tbaa !8
  call void @llvm.lifetime.start.p0(i64 4, ptr %7) #4
  call void @llvm.lifetime.start.p0(i64 4, ptr %8) #4
  store i32 0, ptr %8, align 4, !tbaa !8
  call void @llvm.lifetime.start.p0(i64 4, ptr %9) #4
  store i32 0, ptr %9, align 4, !tbaa !8
  store i32 0, ptr %7, align 4, !tbaa !8
  br label %10

10:                                               ; preds = %84, %3
  %11 = load i32, ptr %7, align 4, !tbaa !8
  %12 = load ptr, ptr %4, align 8, !tbaa !3
  %13 = getelementptr inbounds nuw %struct.Llb_Mtr_t_, ptr %12, i32 0, i32 2
  %14 = load i32, ptr %13, align 8, !tbaa !10
  %15 = load ptr, ptr %4, align 8, !tbaa !3
  %16 = getelementptr inbounds nuw %struct.Llb_Mtr_t_, ptr %15, i32 0, i32 1
  %17 = load i32, ptr %16, align 4, !tbaa !17
  %18 = sub nsw i32 %14, %17
  %19 = icmp slt i32 %11, %18
  br i1 %19, label %20, label %87

20:                                               ; preds = %10
  %21 = load ptr, ptr %4, align 8, !tbaa !3
  %22 = getelementptr inbounds nuw %struct.Llb_Mtr_t_, ptr %21, i32 0, i32 7
  %23 = load ptr, ptr %22, align 8, !tbaa !18
  %24 = load i32, ptr %5, align 4, !tbaa !8
  %25 = sext i32 %24 to i64
  %26 = getelementptr inbounds ptr, ptr %23, i64 %25
  %27 = load ptr, ptr %26, align 8, !tbaa !19
  %28 = load i32, ptr %7, align 4, !tbaa !8
  %29 = sext i32 %28 to i64
  %30 = getelementptr inbounds i8, ptr %27, i64 %29
  %31 = load i8, ptr %30, align 1, !tbaa !20
  %32 = sext i8 %31 to i32
  %33 = icmp eq i32 %32, 1
  br i1 %33, label %34, label %51

34:                                               ; preds = %20
  %35 = load ptr, ptr %4, align 8, !tbaa !3
  %36 = getelementptr inbounds nuw %struct.Llb_Mtr_t_, ptr %35, i32 0, i32 7
  %37 = load ptr, ptr %36, align 8, !tbaa !18
  %38 = load i32, ptr %6, align 4, !tbaa !8
  %39 = sext i32 %38 to i64
  %40 = getelementptr inbounds ptr, ptr %37, i64 %39
  %41 = load ptr, ptr %40, align 8, !tbaa !19
  %42 = load i32, ptr %7, align 4, !tbaa !8
  %43 = sext i32 %42 to i64
  %44 = getelementptr inbounds i8, ptr %41, i64 %43
  %45 = load i8, ptr %44, align 1, !tbaa !20
  %46 = sext i8 %45 to i32
  %47 = icmp eq i32 %46, 1
  br i1 %47, label %48, label %51

48:                                               ; preds = %34
  %49 = load i32, ptr %8, align 4, !tbaa !8
  %50 = add nsw i32 %49, 1
  store i32 %50, ptr %8, align 4, !tbaa !8
  br label %83

51:                                               ; preds = %34, %20
  %52 = load ptr, ptr %4, align 8, !tbaa !3
  %53 = getelementptr inbounds nuw %struct.Llb_Mtr_t_, ptr %52, i32 0, i32 7
  %54 = load ptr, ptr %53, align 8, !tbaa !18
  %55 = load i32, ptr %5, align 4, !tbaa !8
  %56 = sext i32 %55 to i64
  %57 = getelementptr inbounds ptr, ptr %54, i64 %56
  %58 = load ptr, ptr %57, align 8, !tbaa !19
  %59 = load i32, ptr %7, align 4, !tbaa !8
  %60 = sext i32 %59 to i64
  %61 = getelementptr inbounds i8, ptr %58, i64 %60
  %62 = load i8, ptr %61, align 1, !tbaa !20
  %63 = sext i8 %62 to i32
  %64 = icmp eq i32 %63, 1
  br i1 %64, label %79, label %65

65:                                               ; preds = %51
  %66 = load ptr, ptr %4, align 8, !tbaa !3
  %67 = getelementptr inbounds nuw %struct.Llb_Mtr_t_, ptr %66, i32 0, i32 7
  %68 = load ptr, ptr %67, align 8, !tbaa !18
  %69 = load i32, ptr %6, align 4, !tbaa !8
  %70 = sext i32 %69 to i64
  %71 = getelementptr inbounds ptr, ptr %68, i64 %70
  %72 = load ptr, ptr %71, align 8, !tbaa !19
  %73 = load i32, ptr %7, align 4, !tbaa !8
  %74 = sext i32 %73 to i64
  %75 = getelementptr inbounds i8, ptr %72, i64 %74
  %76 = load i8, ptr %75, align 1, !tbaa !20
  %77 = sext i8 %76 to i32
  %78 = icmp eq i32 %77, 1
  br i1 %78, label %79, label %82

79:                                               ; preds = %65, %51
  %80 = load i32, ptr %9, align 4, !tbaa !8
  %81 = add nsw i32 %80, 1
  store i32 %81, ptr %9, align 4, !tbaa !8
  br label %82

82:                                               ; preds = %79, %65
  br label %83

83:                                               ; preds = %82, %48
  br label %84

84:                                               ; preds = %83
  %85 = load i32, ptr %7, align 4, !tbaa !8
  %86 = add nsw i32 %85, 1
  store i32 %86, ptr %7, align 4, !tbaa !8
  br label %10, !llvm.loop !49

87:                                               ; preds = %10
  %88 = load i32, ptr %9, align 4, !tbaa !8
  %89 = sitofp i32 %88 to double
  %90 = fmul double -1.000000e+00, %89
  %91 = load i32, ptr %8, align 4, !tbaa !8
  %92 = load i32, ptr %9, align 4, !tbaa !8
  %93 = add nsw i32 %91, %92
  %94 = sitofp i32 %93 to double
  %95 = fdiv double %90, %94
  %96 = fptrunc double %95 to float
  call void @llvm.lifetime.end.p0(i64 4, ptr %9) #4
  call void @llvm.lifetime.end.p0(i64 4, ptr %8) #4
  call void @llvm.lifetime.end.p0(i64 4, ptr %7) #4
  ret float %96
}

; Function Attrs: nounwind uwtable
define ptr @Llb_ManComputeAttr(ptr noundef %0) #0 {
  %2 = alloca ptr, align 8
  %3 = alloca ptr, align 8
  %4 = alloca i32, align 4
  %5 = alloca i32, align 4
  store ptr %0, ptr %2, align 8, !tbaa !3
  call void @llvm.lifetime.start.p0(i64 8, ptr %3) #4
  call void @llvm.lifetime.start.p0(i64 4, ptr %4) #4
  call void @llvm.lifetime.start.p0(i64 4, ptr %5) #4
  %6 = load ptr, ptr %2, align 8, !tbaa !3
  %7 = getelementptr inbounds nuw %struct.Llb_Mtr_t_, ptr %6, i32 0, i32 3
  %8 = load i32, ptr %7, align 4, !tbaa !24
  %9 = load ptr, ptr %2, align 8, !tbaa !3
  %10 = getelementptr inbounds nuw %struct.Llb_Mtr_t_, ptr %9, i32 0, i32 3
  %11 = load i32, ptr %10, align 4, !tbaa !24
  %12 = call ptr @Extra_ArrayAlloc(i32 noundef %8, i32 noundef %11, i32 noundef 4)
  store ptr %12, ptr %3, align 8, !tbaa !39
  store i32 0, ptr %4, align 4, !tbaa !8
  br label %13

13:                                               ; preds = %39, %1
  %14 = load i32, ptr %4, align 4, !tbaa !8
  %15 = load ptr, ptr %2, align 8, !tbaa !3
  %16 = getelementptr inbounds nuw %struct.Llb_Mtr_t_, ptr %15, i32 0, i32 3
  %17 = load i32, ptr %16, align 4, !tbaa !24
  %18 = icmp slt i32 %14, %17
  br i1 %18, label %19, label %42

19:                                               ; preds = %13
  store i32 0, ptr %5, align 4, !tbaa !8
  br label %20

20:                                               ; preds = %35, %19
  %21 = load i32, ptr %5, align 4, !tbaa !8
  %22 = load ptr, ptr %2, align 8, !tbaa !3
  %23 = getelementptr inbounds nuw %struct.Llb_Mtr_t_, ptr %22, i32 0, i32 3
  %24 = load i32, ptr %23, align 4, !tbaa !24
  %25 = icmp slt i32 %21, %24
  br i1 %25, label %26, label %38

26:                                               ; preds = %20
  %27 = load ptr, ptr %3, align 8, !tbaa !39
  %28 = load i32, ptr %4, align 4, !tbaa !8
  %29 = sext i32 %28 to i64
  %30 = getelementptr inbounds ptr, ptr %27, i64 %29
  %31 = load ptr, ptr %30, align 8, !tbaa !41
  %32 = load i32, ptr %4, align 4, !tbaa !8
  %33 = sext i32 %32 to i64
  %34 = getelementptr inbounds float, ptr %31, i64 %33
  store float 0.000000e+00, ptr %34, align 4, !tbaa !43
  br label %35

35:                                               ; preds = %26
  %36 = load i32, ptr %5, align 4, !tbaa !8
  %37 = add nsw i32 %36, 1
  store i32 %37, ptr %5, align 4, !tbaa !8
  br label %20, !llvm.loop !52

38:                                               ; preds = %20
  br label %39

39:                                               ; preds = %38
  %40 = load i32, ptr %4, align 4, !tbaa !8
  %41 = add nsw i32 %40, 1
  store i32 %41, ptr %4, align 4, !tbaa !8
  br label %13, !llvm.loop !53

42:                                               ; preds = %13
  store i32 1, ptr %4, align 4, !tbaa !8
  br label %43

43:                                               ; preds = %85, %42
  %44 = load i32, ptr %4, align 4, !tbaa !8
  %45 = load ptr, ptr %2, align 8, !tbaa !3
  %46 = getelementptr inbounds nuw %struct.Llb_Mtr_t_, ptr %45, i32 0, i32 3
  %47 = load i32, ptr %46, align 4, !tbaa !24
  %48 = sub nsw i32 %47, 1
  %49 = icmp slt i32 %44, %48
  br i1 %49, label %50, label %88

50:                                               ; preds = %43
  %51 = load i32, ptr %4, align 4, !tbaa !8
  %52 = add nsw i32 %51, 1
  store i32 %52, ptr %5, align 4, !tbaa !8
  br label %53

53:                                               ; preds = %81, %50
  %54 = load i32, ptr %5, align 4, !tbaa !8
  %55 = load ptr, ptr %2, align 8, !tbaa !3
  %56 = getelementptr inbounds nuw %struct.Llb_Mtr_t_, ptr %55, i32 0, i32 3
  %57 = load i32, ptr %56, align 4, !tbaa !24
  %58 = sub nsw i32 %57, 1
  %59 = icmp slt i32 %54, %58
  br i1 %59, label %60, label %84

60:                                               ; preds = %53
  %61 = load ptr, ptr %2, align 8, !tbaa !3
  %62 = load i32, ptr %4, align 4, !tbaa !8
  %63 = load i32, ptr %5, align 4, !tbaa !8
  %64 = call float @Llb_ManComputeCommonAttr(ptr noundef %61, i32 noundef %62, i32 noundef %63)
  %65 = load ptr, ptr %3, align 8, !tbaa !39
  %66 = load i32, ptr %5, align 4, !tbaa !8
  %67 = sext i32 %66 to i64
  %68 = getelementptr inbounds ptr, ptr %65, i64 %67
  %69 = load ptr, ptr %68, align 8, !tbaa !41
  %70 = load i32, ptr %4, align 4, !tbaa !8
  %71 = sext i32 %70 to i64
  %72 = getelementptr inbounds float, ptr %69, i64 %71
  store float %64, ptr %72, align 4, !tbaa !43
  %73 = load ptr, ptr %3, align 8, !tbaa !39
  %74 = load i32, ptr %4, align 4, !tbaa !8
  %75 = sext i32 %74 to i64
  %76 = getelementptr inbounds ptr, ptr %73, i64 %75
  %77 = load ptr, ptr %76, align 8, !tbaa !41
  %78 = load i32, ptr %5, align 4, !tbaa !8
  %79 = sext i32 %78 to i64
  %80 = getelementptr inbounds float, ptr %77, i64 %79
  store float %64, ptr %80, align 4, !tbaa !43
  br label %81

81:                                               ; preds = %60
  %82 = load i32, ptr %5, align 4, !tbaa !8
  %83 = add nsw i32 %82, 1
  store i32 %83, ptr %5, align 4, !tbaa !8
  br label %53, !llvm.loop !54

84:                                               ; preds = %53
  br label %85

85:                                               ; preds = %84
  %86 = load i32, ptr %4, align 4, !tbaa !8
  %87 = add nsw i32 %86, 1
  store i32 %87, ptr %4, align 4, !tbaa !8
  br label %43, !llvm.loop !55

88:                                               ; preds = %43
  %89 = load ptr, ptr %3, align 8, !tbaa !39
  call void @llvm.lifetime.end.p0(i64 4, ptr %5) #4
  call void @llvm.lifetime.end.p0(i64 4, ptr %4) #4
  call void @llvm.lifetime.end.p0(i64 8, ptr %3) #4
  ret ptr %89
}