; Function Attrs: nounwind uwtable
define ptr @Llb_ManComputeAttr(ptr noundef readonly captures(none) %0) local_unnamed_addr #1 {
  %2 = getelementptr inbounds nuw i8, ptr %0, i64 12
  %3 = load i32, ptr %2, align 4, !tbaa !22
  %4 = tail call ptr @Extra_ArrayAlloc(i32 noundef %3, i32 noundef %3, i32 noundef 4) #5
  %5 = load i32, ptr %2, align 4, !tbaa !22
  %6 = icmp sgt i32 %5, 0
  br i1 %6, label %.preheader29.us.preheader, label %._crit_edge

.preheader29.us.preheader:                        ; preds = %1
  %wide.trip.count = zext nneg i32 %5 to i64
  br label %.preheader29.us

.preheader29.us:                                  ; preds = %.preheader29.us.preheader, %.preheader29.us
  %indvars.iv = phi i64 [ 0, %.preheader29.us.preheader ], [ %indvars.iv.next, %.preheader29.us ]
  %7 = getelementptr inbounds nuw ptr, ptr %4, i64 %indvars.iv
  %8 = load ptr, ptr %7, align 8, !tbaa !38
  %9 = getelementptr inbounds nuw float, ptr %8, i64 %indvars.iv
  store float 0.000000e+00, ptr %9, align 4, !tbaa !40
  %indvars.iv.next = add nuw nsw i64 %indvars.iv, 1
  %exitcond.not = icmp eq i64 %indvars.iv.next, %wide.trip.count
  br i1 %exitcond.not, label %.preheader, label %.preheader29.us, !llvm.loop !48

.preheader:                                       ; preds = %.preheader29.us
  %10 = icmp sgt i32 %5, 2
  br i1 %10, label %.lr.ph34, label %._crit_edge

.lr.ph34:                                         ; preds = %.preheader
  %11 = add nsw i32 %5, -1
  %12 = getelementptr inbounds nuw i8, ptr %0, i64 8
  %13 = getelementptr inbounds nuw i8, ptr %0, i64 4
  %14 = getelementptr inbounds nuw i8, ptr %0, i64 40
  %15 = zext nneg i32 %11 to i64
  %wide.trip.count52 = zext nneg i32 %11 to i64
  br label %16

.loopexit:                                        ; preds = %Llb_ManComputeCommonAttr.exit, %Llb_ManComputeCommonAttr.exit.loopexit.us, %16
  %indvars.iv.next38 = add nuw nsw i64 %indvars.iv37, 1
  %exitcond53.not = icmp eq i64 %indvars.iv.next50, %wide.trip.count52
  br i1 %exitcond53.not, label %._crit_edge, label %16, !llvm.loop !49

16:                                               ; preds = %.lr.ph34, %.loopexit
  %indvars.iv49 = phi i64 [ 1, %.lr.ph34 ], [ %indvars.iv.next50, %.loopexit ]
  %indvars.iv37 = phi i64 [ 2, %.lr.ph34 ], [ %indvars.iv.next38, %.loopexit ]
  %indvars.iv.next50 = add nuw nsw i64 %indvars.iv49, 1
  %17 = icmp samesign ult i64 %indvars.iv.next50, %15
  br i1 %17, label %.lr.ph, label %.loopexit

.lr.ph:                                           ; preds = %16
  %18 = load i32, ptr %12, align 8, !tbaa !3
  %19 = load i32, ptr %13, align 4, !tbaa !14
  %20 = sub nsw i32 %18, %19
  %21 = icmp sgt i32 %20, 0
  %wide.trip.count.i = zext nneg i32 %20 to i64
  %22 = getelementptr inbounds nuw ptr, ptr %4, i64 %indvars.iv49
  %23 = load ptr, ptr %22, align 8, !tbaa !38
  br i1 %21, label %.lr.ph.split.us, label %Llb_ManComputeCommonAttr.exit

.lr.ph.split.us:                                  ; preds = %.lr.ph
  %24 = load ptr, ptr %14, align 8, !tbaa !15
  %25 = getelementptr inbounds nuw ptr, ptr %24, i64 %indvars.iv49
  %26 = load ptr, ptr %25, align 8, !tbaa !16
  br label %.lr.ph.i.us

.lr.ph.i.us:                                      ; preds = %Llb_ManComputeCommonAttr.exit.loopexit.us, %.lr.ph.split.us
  %indvars.iv44 = phi i64 [ %indvars.iv.next45, %Llb_ManComputeCommonAttr.exit.loopexit.us ], [ %indvars.iv37, %.lr.ph.split.us ]
  %27 = getelementptr inbounds nuw ptr, ptr %24, i64 %indvars.iv44
  %28 = load ptr, ptr %27, align 8, !tbaa !16
  br label %29

29:                                               ; preds = %41, %.lr.ph.i.us
  %indvars.iv.i.us = phi i64 [ 0, %.lr.ph.i.us ], [ %indvars.iv.next.i.us, %41 ]
  %.025.i.us = phi i32 [ 0, %.lr.ph.i.us ], [ %.1.i.us, %41 ]
  %.02024.i.us = phi i32 [ 0, %.lr.ph.i.us ], [ %.121.i.us, %41 ]
  %30 = getelementptr inbounds nuw i8, ptr %26, i64 %indvars.iv.i.us
  %31 = load i8, ptr %30, align 1, !tbaa !17
  %32 = icmp eq i8 %31, 1
  %33 = getelementptr inbounds nuw i8, ptr %28, i64 %indvars.iv.i.us
  %34 = load i8, ptr %33, align 1, !tbaa !17
  %35 = icmp eq i8 %34, 1
  br i1 %32, label %37, label %36

36:                                               ; preds = %29
  br i1 %35, label %.thread.i.us, label %41

37:                                               ; preds = %29
  br i1 %35, label %39, label %.thread.i.us

.thread.i.us:                                     ; preds = %37, %36
  %38 = add nsw i32 %.025.i.us, 1
  br label %41

39:                                               ; preds = %37
  %40 = add nsw i32 %.02024.i.us, 1
  br label %41

41:                                               ; preds = %39, %.thread.i.us, %36
  %.121.i.us = phi i32 [ %40, %39 ], [ %.02024.i.us, %.thread.i.us ], [ %.02024.i.us, %36 ]
  %.1.i.us = phi i32 [ %.025.i.us, %39 ], [ %38, %.thread.i.us ], [ %.025.i.us, %36 ]
  %indvars.iv.next.i.us = add nuw nsw i64 %indvars.iv.i.us, 1
  %exitcond.not.i.us = icmp eq i64 %indvars.iv.next.i.us, %wide.trip.count.i
  br i1 %exitcond.not.i.us, label %Llb_ManComputeCommonAttr.exit.loopexit.us, label %29, !llvm.loop !45

Llb_ManComputeCommonAttr.exit.loopexit.us:        ; preds = %41
  %42 = sitofp i32 %.1.i.us to double
  %43 = fneg double %42
  %44 = add nsw i32 %.1.i.us, %.121.i.us
  %45 = sitofp i32 %44 to double
  %46 = fdiv double %43, %45
  %47 = fptrunc double %46 to float
  %48 = getelementptr inbounds nuw ptr, ptr %4, i64 %indvars.iv44
  %49 = load ptr, ptr %48, align 8, !tbaa !38
  %50 = getelementptr inbounds nuw float, ptr %49, i64 %indvars.iv49
  store float %47, ptr %50, align 4, !tbaa !40
  %51 = getelementptr inbounds nuw float, ptr %23, i64 %indvars.iv44
  store float %47, ptr %51, align 4, !tbaa !40
  %indvars.iv.next45 = add nuw nsw i64 %indvars.iv44, 1
  %exitcond48.not = icmp eq i64 %indvars.iv.next45, %wide.trip.count52
  br i1 %exitcond48.not, label %.loopexit, label %.lr.ph.i.us, !llvm.loop !50

Llb_ManComputeCommonAttr.exit:                    ; preds = %.lr.ph, %Llb_ManComputeCommonAttr.exit
  %indvars.iv39 = phi i64 [ %indvars.iv.next40, %Llb_ManComputeCommonAttr.exit ], [ %indvars.iv37, %.lr.ph ]
  %52 = getelementptr inbounds nuw ptr, ptr %4, i64 %indvars.iv39
  %53 = load ptr, ptr %52, align 8, !tbaa !38
  %54 = getelementptr inbounds nuw float, ptr %53, i64 %indvars.iv49
  store float 0x7FF8000000000000, ptr %54, align 4, !tbaa !40
  %55 = getelementptr inbounds nuw float, ptr %23, i64 %indvars.iv39
  store float 0x7FF8000000000000, ptr %55, align 4, !tbaa !40
  %indvars.iv.next40 = add nuw nsw i64 %indvars.iv39, 1
  %exitcond43.not = icmp eq i64 %indvars.iv.next40, %wide.trip.count52
  br i1 %exitcond43.not, label %.loopexit, label %Llb_ManComputeCommonAttr.exit, !llvm.loop !50

._crit_edge:                                      ; preds = %.loopexit, %1, %.preheader
  ret ptr %4
}